target datalayout = "e-m:e-p270:32:32-p271:32:32-p272:64:64-i64:64-i128:128-f80:128-n8:16:32:64-S128"
target triple = "x86_64-pc-linux-gnu"

%struct.zhuffman = type { [512 x i16], [16 x i16], [17 x i32], [16 x i16], [288 x i8], [288 x i16] }

; Function Attrs: mustprogress uwtable
define internal noundef i32 @_ZL14zbuild_huffmanP8zhuffmanPKhi(ptr noundef %0, ptr noundef %1, i32 noundef %2) #0 {
  %4 = alloca i32, align 4
  %5 = alloca i32, align 4
  %6 = alloca i32, align 4
  %7 = alloca i32, align 4
  %8 = alloca ptr, align 8
  %9 = alloca ptr, align 8
  %10 = alloca i32, align 4
  %11 = alloca i32, align 4
  %12 = alloca i32, align 4
  %13 = alloca i32, align 4
  %14 = alloca [16 x i32], align 16
  %15 = alloca [17 x i32], align 16
  %16 = alloca i32, align 4
  %17 = alloca i32, align 4
  %18 = alloca i16, align 2
  %19 = alloca i32, align 4
  store ptr %0, ptr %8, align 8
  store ptr %1, ptr %9, align 8
  store i32 %2, ptr %10, align 4
  store i32 0, ptr %12, align 4
  store i32 0, ptr %11, align 4
  br label %20

20:                                               ; preds = %27, %3
  %21 = load i32, ptr %11, align 4
  %22 = icmp slt i32 %21, 17
  br i1 %22, label %23, label %30

23:                                               ; preds = %20
  %24 = load i32, ptr %11, align 4
  %25 = sext i32 %24 to i64
  %26 = getelementptr inbounds [17 x i32], ptr %15, i64 0, i64 %25
  store i32 0, ptr %26, align 4
  br label %27

27:                                               ; preds = %23
  %28 = load i32, ptr %11, align 4
  %29 = add nsw i32 %28, 1
  store i32 %29, ptr %11, align 4
  br label %20, !llvm.loop !21

30:                                               ; preds = %20
  store i32 0, ptr %11, align 4
  br label %31

31:                                               ; preds = %40, %30
  %32 = load i32, ptr %11, align 4
  %33 = icmp slt i32 %32, 512
  br i1 %33, label %34, label %43

34:                                               ; preds = %31
  %35 = load ptr, ptr %8, align 8
  %36 = getelementptr inbounds %struct.zhuffman, ptr %35, i32 0, i32 0
  %37 = load i32, ptr %11, align 4
  %38 = sext i32 %37 to i64
  %39 = getelementptr inbounds [512 x i16], ptr %36, i64 0, i64 %38
  store i16 0, ptr %39, align 2
  br label %40

40:                                               ; preds = %34
  %41 = load i32, ptr %11, align 4
  %42 = add nsw i32 %41, 1
  store i32 %42, ptr %11, align 4
  br label %31, !llvm.loop !22

43:                                               ; preds = %31
  store i32 0, ptr %11, align 4
  br label %44

44:                                               ; preds = %58, %43
  %45 = load i32, ptr %11, align 4
  %46 = load i32, ptr %10, align 4
  %47 = icmp slt i32 %45, %46
  br i1 %47, label %48, label %61

48:                                               ; preds = %44
  %49 = load ptr, ptr %9, align 8
  %50 = load i32, ptr %11, align 4
  %51 = sext i32 %50 to i64
  %52 = getelementptr inbounds i8, ptr %49, i64 %51
  %53 = load i8, ptr %52, align 1
  %54 = zext i8 %53 to i64
  %55 = getelementptr inbounds [17 x i32], ptr %15, i64 0, i64 %54
  %56 = load i32, ptr %55, align 4
  %57 = add nsw i32 %56, 1
  store i32 %57, ptr %55, align 4
  br label %58

58:                                               ; preds = %48
  %59 = load i32, ptr %11, align 4
  %60 = add nsw i32 %59, 1
  store i32 %60, ptr %11, align 4
  br label %44, !llvm.loop !23

61:                                               ; preds = %44
  %62 = getelementptr inbounds [17 x i32], ptr %15, i64 0, i64 0
  store i32 0, ptr %62, align 16
  store i32 0, ptr %13, align 4
  store i32 1, ptr %11, align 4
  br label %63

63:                                               ; preds = %122, %61
  %64 = load i32, ptr %11, align 4
  %65 = icmp slt i32 %64, 16
  br i1 %65, label %66, label %125

66:                                               ; preds = %63
  %67 = load i32, ptr %13, align 4
  %68 = load i32, ptr %11, align 4
  %69 = sext i32 %68 to i64
  %70 = getelementptr inbounds [16 x i32], ptr %14, i64 0, i64 %69
  store i32 %67, ptr %70, align 4
  %71 = load i32, ptr %13, align 4
  %72 = trunc i32 %71 to i16
  %73 = load ptr, ptr %8, align 8
  %74 = getelementptr inbounds %struct.zhuffman, ptr %73, i32 0, i32 1
  %75 = load i32, ptr %11, align 4
  %76 = sext i32 %75 to i64
  %77 = getelementptr inbounds [16 x i16], ptr %74, i64 0, i64 %76
  store i16 %72, ptr %77, align 2
  %78 = load i32, ptr %12, align 4
  %79 = trunc i32 %78 to i16
  %80 = load ptr, ptr %8, align 8
  %81 = getelementptr inbounds %struct.zhuffman, ptr %80, i32 0, i32 3
  %82 = load i32, ptr %11, align 4
  %83 = sext i32 %82 to i64
  %84 = getelementptr inbounds [16 x i16], ptr %81, i64 0, i64 %83
  store i16 %79, ptr %84, align 2
  %85 = load i32, ptr %13, align 4
  %86 = load i32, ptr %11, align 4
  %87 = sext i32 %86 to i64
  %88 = getelementptr inbounds [17 x i32], ptr %15, i64 0, i64 %87
  %89 = load i32, ptr %88, align 4
  %90 = add nsw i32 %85, %89
  store i32 %90, ptr %13, align 4
  %91 = load i32, ptr %11, align 4
  %92 = sext i32 %91 to i64
  %93 = getelementptr inbounds [17 x i32], ptr %15, i64 0, i64 %92
  %94 = load i32, ptr %93, align 4
  %95 = icmp ne i32 %94, 0
  br i1 %95, label %96, label %104

96:                                               ; preds = %66
  %97 = load i32, ptr %13, align 4
  %98 = sub nsw i32 %97, 1
  %99 = load i32, ptr %11, align 4
  %100 = shl i32 1, %99
  %101 = icmp sge i32 %98, %100
  br i1 %101, label %102, label %103

102:                                              ; preds = %96
  store i32 0, ptr %7, align 4
  br label %249

103:                                              ; preds = %96
  br label %104

104:                                              ; preds = %103, %66
  %105 = load i32, ptr %13, align 4
  %106 = load i32, ptr %11, align 4
  %107 = sub nsw i32 16, %106
  %108 = shl i32 %105, %107
  %109 = load ptr, ptr %8, align 8
  %110 = getelementptr inbounds %struct.zhuffman, ptr %109, i32 0, i32 2
  %111 = load i32, ptr %11, align 4
  %112 = sext i32 %111 to i64
  %113 = getelementptr inbounds [17 x i32], ptr %110, i64 0, i64 %112
  store i32 %108, ptr %113, align 4
  %114 = load i32, ptr %13, align 4
  %115 = shl i32 %114, 1
  store i32 %115, ptr %13, align 4
  %116 = load i32, ptr %11, align 4
  %117 = sext i32 %116 to i64
  %118 = getelementptr inbounds [17 x i32], ptr %15, i64 0, i64 %117
  %119 = load i32, ptr %118, align 4
  %120 = load i32, ptr %12, align 4
  %121 = add nsw i32 %120, %119
  store i32 %121, ptr %12, align 4
  br label %122

122:                                              ; preds = %104
  %123 = load i32, ptr %11, align 4
  %124 = add nsw i32 %123, 1
  store i32 %124, ptr %11, align 4
  br label %63, !llvm.loop !24

125:                                              ; preds = %63
  %126 = load ptr, ptr %8, align 8
  %127 = getelementptr inbounds %struct.zhuffman, ptr %126, i32 0, i32 2
  %128 = getelementptr inbounds [17 x i32], ptr %127, i64 0, i64 16
  store i32 65536, ptr %128, align 4
  store i32 0, ptr %11, align 4
  br label %129

129:                                              ; preds = %245, %125
  %130 = load i32, ptr %11, align 4
  %131 = load i32, ptr %10, align 4
  %132 = icmp slt i32 %130, %131
  br i1 %132, label %133, label %248

133:                                              ; preds = %129
  %134 = load ptr, ptr %9, align 8
  %135 = load i32, ptr %11, align 4
  %136 = sext i32 %135 to i64
  %137 = getelementptr inbounds i8, ptr %134, i64 %136
  %138 = load i8, ptr %137, align 1
  %139 = zext i8 %138 to i32
  store i32 %139, ptr %16, align 4
  %140 = load i32, ptr %16, align 4
  %141 = icmp ne i32 %140, 0
  br i1 %141, label %142, label %244

142:                                              ; preds = %133
  %143 = load i32, ptr %16, align 4
  %144 = sext i32 %143 to i64
  %145 = getelementptr inbounds [16 x i32], ptr %14, i64 0, i64 %144
  %146 = load i32, ptr %145, align 4
  %147 = load ptr, ptr %8, align 8
  %148 = getelementptr inbounds %struct.zhuffman, ptr %147, i32 0, i32 1
  %149 = load i32, ptr %16, align 4
  %150 = sext i32 %149 to i64
  %151 = getelementptr inbounds [16 x i16], ptr %148, i64 0, i64 %150
  %152 = load i16, ptr %151, align 2
  %153 = zext i16 %152 to i32
  %154 = sub nsw i32 %146, %153
  %155 = load ptr, ptr %8, align 8
  %156 = getelementptr inbounds %struct.zhuffman, ptr %155, i32 0, i32 3
  %157 = load i32, ptr %16, align 4
  %158 = sext i32 %157 to i64
  %159 = getelementptr inbounds [16 x i16], ptr %156, i64 0, i64 %158
  %160 = load i16, ptr %159, align 2
  %161 = zext i16 %160 to i32
  %162 = add nsw i32 %154, %161
  store i32 %162, ptr %17, align 4
  %163 = load i32, ptr %16, align 4
  %164 = shl i32 %163, 9
  %165 = load i32, ptr %11, align 4
  %166 = or i32 %164, %165
  %167 = trunc i32 %166 to i16
  store i16 %167, ptr %18, align 2
  %168 = load i32, ptr %16, align 4
  %169 = trunc i32 %168 to i8
  %170 = load ptr, ptr %8, align 8
  %171 = getelementptr inbounds %struct.zhuffman, ptr %170, i32 0, i32 4
  %172 = load i32, ptr %17, align 4
  %173 = sext i32 %172 to i64
  %174 = getelementptr inbounds [288 x i8], ptr %171, i64 0, i64 %173
  store i8 %169, ptr %174, align 1
  %175 = load i32, ptr %11, align 4
  %176 = trunc i32 %175 to i16
  %177 = load ptr, ptr %8, align 8
  %178 = getelementptr inbounds %struct.zhuffman, ptr %177, i32 0, i32 5
  %179 = load i32, ptr %17, align 4
  %180 = sext i32 %179 to i64
  %181 = getelementptr inbounds [288 x i16], ptr %178, i64 0, i64 %180
  store i16 %176, ptr %181, align 2
  %182 = load i32, ptr %16, align 4
  %183 = icmp sle i32 %182, 9
  br i1 %183, label %184, label %238

184:                                              ; preds = %142
  %185 = load i32, ptr %16, align 4
  %186 = sext i32 %185 to i64
  %187 = getelementptr inbounds [16 x i32], ptr %14, i64 0, i64 %186
  %188 = load i32, ptr %187, align 4
  %189 = load i32, ptr %16, align 4
  store i32 %188, ptr %5, align 4
  store i32 %189, ptr %6, align 4
  %190 = load i32, ptr %5, align 4
  store i32 %190, ptr %4, align 4
  %191 = load i32, ptr %4, align 4
  %192 = and i32 %191, 43690
  %193 = ashr i32 %192, 1
  %194 = load i32, ptr %4, align 4
  %195 = and i32 %194, 21845
  %196 = shl i32 %195, 1
  %197 = or i32 %193, %196
  store i32 %197, ptr %4, align 4
  %198 = load i32, ptr %4, align 4
  %199 = and i32 %198, 52428
  %200 = ashr i32 %199, 2
  %201 = load i32, ptr %4, align 4
  %202 = and i32 %201, 13107
  %203 = shl i32 %202, 2
  %204 = or i32 %200, %203
  store i32 %204, ptr %4, align 4
  %205 = load i32, ptr %4, align 4
  %206 = and i32 %205, 61680
  %207 = ashr i32 %206, 4
  %208 = load i32, ptr %4, align 4
  %209 = and i32 %208, 3855
  %210 = shl i32 %209, 4
  %211 = or i32 %207, %210
  store i32 %211, ptr %4, align 4
  %212 = load i32, ptr %4, align 4
  %213 = and i32 %212, 65280
  %214 = ashr i32 %213, 8
  %215 = load i32, ptr %4, align 4
  %216 = and i32 %215, 255
  %217 = shl i32 %216, 8
  %218 = or i32 %214, %217
  store i32 %218, ptr %4, align 4
  %219 = load i32, ptr %4, align 4
  %220 = load i32, ptr %6, align 4
  %221 = sub nsw i32 16, %220
  %222 = ashr i32 %219, %221
  store i32 %222, ptr %19, align 4
  br label %223

223:                                              ; preds = %226, %184
  %224 = load i32, ptr %19, align 4
  %225 = icmp slt i32 %224, 512
  br i1 %225, label %226, label %237

226:                                              ; preds = %223
  %227 = load i16, ptr %18, align 2
  %228 = load ptr, ptr %8, align 8
  %229 = getelementptr inbounds %struct.zhuffman, ptr %228, i32 0, i32 0
  %230 = load i32, ptr %19, align 4
  %231 = sext i32 %230 to i64
  %232 = getelementptr inbounds [512 x i16], ptr %229, i64 0, i64 %231
  store i16 %227, ptr %232, align 2
  %233 = load i32, ptr %16, align 4
  %234 = shl i32 1, %233
  %235 = load i32, ptr %19, align 4
  %236 = add nsw i32 %235, %234
  store i32 %236, ptr %19, align 4
  br label %223, !llvm.loop !25

237:                                              ; preds = %223
  br label %238

238:                                              ; preds = %237, %142
  %239 = load i32, ptr %16, align 4
  %240 = sext i32 %239 to i64
  %241 = getelementptr inbounds [16 x i32], ptr %14, i64 0, i64 %240
  %242 = load i32, ptr %241, align 4
  %243 = add nsw i32 %242, 1
  store i32 %243, ptr %241, align 4
  br label %244

244:                                              ; preds = %238, %133
  br label %245

245:                                              ; preds = %244
  %246 = load i32, ptr %11, align 4
  %247 = add nsw i32 %246, 1
  store i32 %247, ptr %11, align 4
  br label %129, !llvm.loop !26

248:                                              ; preds = %129
  store i32 1, ptr %7, align 4
  br label %249

249:                                              ; preds = %248, %102
  %250 = load i32, ptr %7, align 4
  ret i32 %250
}