; Function Attrs: mustprogress nofree norecurse nosync nounwind memory(argmem: readwrite) uwtable
define internal fastcc noundef i32 @_ZL14zbuild_huffmanP8zhuffmanPKhi(ptr nocapture noundef %0, ptr nocapture noundef readonly %1, i32 noundef %2) unnamed_addr #7 {
.preheader85.preheader:
  %3 = alloca [16 x i32], align 16
  %4 = alloca [17 x i32], align 16
  call void @llvm.memset.p0.i64(ptr noundef nonnull align 16 dereferenceable(68) %4, i8 0, i64 68, i1 false)
  tail call void @llvm.memset.p0.i64(ptr noundef nonnull align 2 dereferenceable(1024) %0, i8 0, i64 1024, i1 false)
  %5 = icmp sgt i32 %2, 0
  br i1 %5, label %.lr.ph.preheader, label %._crit_edge

.lr.ph.preheader:                                 ; preds = %.preheader85.preheader
  %wide.trip.count = zext nneg i32 %2 to i64
  br label %.lr.ph

.lr.ph:                                           ; preds = %.lr.ph.preheader, %.lr.ph
  %indvars.iv = phi i64 [ 0, %.lr.ph.preheader ], [ %indvars.iv.next, %.lr.ph ]
  %6 = getelementptr inbounds i8, ptr %1, i64 %indvars.iv
  %7 = load i8, ptr %6, align 1
  %8 = zext i8 %7 to i64
  %9 = getelementptr inbounds [17 x i32], ptr %4, i64 0, i64 %8
  %10 = load i32, ptr %9, align 4
  %11 = add nsw i32 %10, 1
  store i32 %11, ptr %9, align 4
  %indvars.iv.next = add nuw nsw i64 %indvars.iv, 1
  %exitcond.not = icmp eq i64 %indvars.iv.next, %wide.trip.count
  br i1 %exitcond.not, label %._crit_edge, label %.lr.ph, !llvm.loop !20

._crit_edge:                                      ; preds = %.lr.ph, %.preheader85.preheader
  %12 = getelementptr inbounds i8, ptr %0, i64 1024
  %13 = getelementptr inbounds i8, ptr %0, i64 1124
  %14 = getelementptr inbounds i8, ptr %0, i64 1056
  br label %15

15:                                               ; preds = %._crit_edge, %26
  %indvars.iv102 = phi i64 [ 1, %._crit_edge ], [ %indvars.iv.next103, %26 ]
  %.07790 = phi i32 [ 0, %._crit_edge ], [ %32, %26 ]
  %.07889 = phi i32 [ 0, %._crit_edge ], [ %31, %26 ]
  %16 = getelementptr inbounds [16 x i32], ptr %3, i64 0, i64 %indvars.iv102
  store i32 %.07889, ptr %16, align 4
  %17 = trunc i32 %.07889 to i16
  %18 = getelementptr inbounds [16 x i16], ptr %12, i64 0, i64 %indvars.iv102
  store i16 %17, ptr %18, align 2
  %19 = trunc i32 %.07790 to i16
  %20 = getelementptr inbounds [16 x i16], ptr %13, i64 0, i64 %indvars.iv102
  store i16 %19, ptr %20, align 2
  %21 = getelementptr inbounds [17 x i32], ptr %4, i64 0, i64 %indvars.iv102
  %22 = load i32, ptr %21, align 4
  %23 = add nsw i32 %22, %.07889
  %.not81 = icmp ne i32 %22, 0
  %24 = trunc i64 %indvars.iv102 to i32
  %25 = shl nuw nsw i32 1, %24
  %.not82.not = icmp sgt i32 %23, %25
  %or.cond = select i1 %.not81, i1 %.not82.not, i1 false
  br i1 %or.cond, label %.loopexit83, label %26

26:                                               ; preds = %15
  %27 = trunc i64 %indvars.iv102 to i32
  %28 = sub i32 16, %27
  %29 = shl i32 %23, %28
  %30 = getelementptr inbounds [17 x i32], ptr %14, i64 0, i64 %indvars.iv102
  store i32 %29, ptr %30, align 4
  %31 = shl i32 %23, 1
  %32 = add nsw i32 %22, %.07790
  %indvars.iv.next103 = add nuw nsw i64 %indvars.iv102, 1
  %exitcond105.not = icmp eq i64 %indvars.iv.next103, 16
  br i1 %exitcond105.not, label %33, label %15, !llvm.loop !21

33:                                               ; preds = %26
  %34 = getelementptr inbounds i8, ptr %0, i64 1120
  store i32 65536, ptr %34, align 4
  br i1 %5, label %.lr.ph97, label %.loopexit83

.lr.ph97:                                         ; preds = %33
  %35 = getelementptr inbounds i8, ptr %0, i64 1156
  %36 = getelementptr inbounds i8, ptr %0, i64 1444
  %wide.trip.count112 = zext nneg i32 %2 to i64
  br label %37

37:                                               ; preds = %.lr.ph97, %74
  %indvars.iv109 = phi i64 [ 0, %.lr.ph97 ], [ %indvars.iv.next110, %74 ]
  %38 = getelementptr inbounds i8, ptr %1, i64 %indvars.iv109
  %39 = load i8, ptr %38, align 1
  %40 = zext i8 %39 to i32
  %.not = icmp eq i8 %39, 0
  br i1 %.not, label %74, label %41

41:                                               ; preds = %37
  %42 = zext i8 %39 to i64
  %43 = getelementptr inbounds [16 x i32], ptr %3, i64 0, i64 %42
  %44 = load i32, ptr %43, align 4
  %45 = getelementptr inbounds [16 x i16], ptr %12, i64 0, i64 %42
  %46 = load i16, ptr %45, align 2
  %47 = zext i16 %46 to i32
  %48 = sub i32 %44, %47
  %49 = getelementptr inbounds [16 x i16], ptr %13, i64 0, i64 %42
  %50 = load i16, ptr %49, align 2
  %51 = zext i16 %50 to i32
  %52 = add nsw i32 %48, %51
  %53 = shl nuw nsw i32 %40, 9
  %54 = trunc i64 %indvars.iv109 to i32
  %55 = or i32 %53, %54
  %56 = trunc i32 %55 to i16
  %57 = sext i32 %52 to i64
  %58 = getelementptr inbounds [288 x i8], ptr %35, i64 0, i64 %57
  store i8 %39, ptr %58, align 1
  %59 = trunc i64 %indvars.iv109 to i16
  %60 = getelementptr inbounds [288 x i16], ptr %36, i64 0, i64 %57
  store i16 %59, ptr %60, align 2
  %61 = icmp ult i8 %39, 10
  br i1 %61, label %62, label %.loopexit

62:                                               ; preds = %41
  %trunc = trunc i32 %44 to i16
  %rev = tail call i16 @llvm.bitreverse.i16(i16 %trunc)
  %63 = zext i16 %rev to i32
  %64 = sub nuw nsw i32 16, %40
  %65 = lshr i32 %63, %64
  %66 = icmp ult i32 %65, 512
  br i1 %66, label %.lr.ph94, label %.loopexit

.lr.ph94:                                         ; preds = %62
  %67 = shl nuw nsw i32 1, %40
  %68 = zext nneg i32 %65 to i64
  %69 = zext nneg i32 %67 to i64
  br label %70

70:                                               ; preds = %.lr.ph94, %70
  %indvars.iv106 = phi i64 [ %68, %.lr.ph94 ], [ %indvars.iv.next107, %70 ]
  %71 = getelementptr inbounds [512 x i16], ptr %0, i64 0, i64 %indvars.iv106
  store i16 %56, ptr %71, align 2
  %indvars.iv.next107 = add nuw nsw i64 %indvars.iv106, %69
  %72 = icmp ult i64 %indvars.iv.next107, 512
  br i1 %72, label %70, label %.loopexit, !llvm.loop !22

.loopexit:                                        ; preds = %70, %62, %41
  %73 = add nsw i32 %44, 1
  store i32 %73, ptr %43, align 4
  br label %74

74:                                               ; preds = %37, %.loopexit
  %indvars.iv.next110 = add nuw nsw i64 %indvars.iv109, 1
  %exitcond113.not = icmp eq i64 %indvars.iv.next110, %wide.trip.count112
  br i1 %exitcond113.not, label %.loopexit83, label %37, !llvm.loop !23

.loopexit83:                                      ; preds = %15, %74, %33
  %.075 = phi i32 [ 1, %33 ], [ 1, %74 ], [ 0, %15 ]
  ret i32 %.075
}